; ModuleID = '53/622.c'
source_filename = "53/622.c"
target datalayout = "e-m:e-p270:32:32-p271:32:32-p272:64:64-i64:64-f80:128-n8:16:32:64-S128"
target triple = "x86_64-pc-linux-gnu"

@.str = private unnamed_addr constant [3 x i8] c"%d\00", align 1
@.str.1 = private unnamed_addr constant [4 x i8] c"%d,\00", align 1
@.str.2 = private unnamed_addr constant [4 x i8] c"%d\0A\00", align 1

; Function Attrs: noinline nounwind uwtable
define dso_local void @main() #0 {
  %1 = alloca [300 x i32], align 16
  %2 = alloca [300 x i32], align 16
  %3 = alloca i32, align 4
  %4 = alloca i32*, align 8
  %5 = alloca i32*, align 8
  %6 = alloca i32, align 4
  %7 = alloca i32, align 4
  %8 = alloca i32*, align 8
  %9 = bitcast [300 x i32]* %1 to i8*
  call void @llvm.memset.p0i8.i64(i8* align 16 %9, i8 0, i64 1200, i1 false)
  store i32 0, i32* %6, align 4
  %10 = call i32 (i8*, ...) @__isoc99_scanf(i8* getelementptr inbounds ([3 x i8], [3 x i8]* @.str, i64 0, i64 0), i32* %3)
  %11 = getelementptr inbounds [300 x i32], [300 x i32]* %1, i64 0, i64 0
  store i32* %11, i32** %4, align 8
  store i32 0, i32* %7, align 4
  br label %12

12:                                               ; preds = %19, %0
  %13 = load i32, i32* %7, align 4
  %14 = load i32, i32* %3, align 4
  %15 = icmp slt i32 %13, %14
  br i1 %15, label %16, label %24

16:                                               ; preds = %12
  %17 = load i32*, i32** %4, align 8
  %18 = call i32 (i8*, ...) @__isoc99_scanf(i8* getelementptr inbounds ([3 x i8], [3 x i8]* @.str, i64 0, i64 0), i32* %17)
  br label %19

19:                                               ; preds = %16
  %20 = load i32*, i32** %4, align 8
  %21 = getelementptr inbounds i32, i32* %20, i32 1
  store i32* %21, i32** %4, align 8
  %22 = load i32, i32* %7, align 4
  %23 = add nsw i32 %22, 1
  store i32 %23, i32* %7, align 4
  br label %12

24:                                               ; preds = %12
  %25 = getelementptr inbounds [300 x i32], [300 x i32]* %2, i64 0, i64 0
  store i32* %25, i32** %8, align 8
  %26 = getelementptr inbounds [300 x i32], [300 x i32]* %1, i64 0, i64 0
  store i32* %26, i32** %4, align 8
  %27 = load i32*, i32** %4, align 8
  %28 = load i32, i32* %27, align 4
  %29 = load i32*, i32** %8, align 8
  store i32 %28, i32* %29, align 4
  %30 = load i32*, i32** %4, align 8
  %31 = getelementptr inbounds i32, i32* %30, i32 1
  store i32* %31, i32** %4, align 8
  br label %32

32:                                               ; preds = %68, %24
  %33 = load i32*, i32** %4, align 8
  %34 = load i32, i32* %33, align 4
  %35 = icmp ne i32 %34, 0
  br i1 %35, label %36, label %73

36:                                               ; preds = %32
  %37 = getelementptr inbounds [300 x i32], [300 x i32]* %2, i64 0, i64 0
  store i32* %37, i32** %5, align 8
  br label %38

38:                                               ; preds = %56, %36
  %39 = load i32*, i32** %5, align 8
  %40 = load i32*, i32** %8, align 8
  %41 = load i32, i32* %6, align 4
  %42 = sext i32 %41 to i64
  %43 = sub i64 0, %42
  %44 = getelementptr inbounds i32, i32* %40, i64 %43
  %45 = icmp ule i32* %39, %44
  br i1 %45, label %46, label %59

46:                                               ; preds = %38
  %47 = load i32*, i32** %4, align 8
  %48 = load i32, i32* %47, align 4
  %49 = load i32*, i32** %5, align 8
  %50 = load i32, i32* %49, align 4
  %51 = icmp eq i32 %48, %50
  br i1 %51, label %52, label %55

52:                                               ; preds = %46
  %53 = load i32, i32* %6, align 4
  %54 = add nsw i32 %53, 1
  store i32 %54, i32* %6, align 4
  br label %68

55:                                               ; preds = %46
  br label %56

56:                                               ; preds = %55
  %57 = load i32*, i32** %5, align 8
  %58 = getelementptr inbounds i32, i32* %57, i32 1
  store i32* %58, i32** %5, align 8
  br label %38

59:                                               ; preds = %38
  %60 = load i32*, i32** %4, align 8
  %61 = load i32, i32* %60, align 4
  %62 = load i32*, i32** %8, align 8
  %63 = getelementptr inbounds i32, i32* %62, i64 1
  %64 = load i32, i32* %6, align 4
  %65 = sext i32 %64 to i64
  %66 = sub i64 0, %65
  %67 = getelementptr inbounds i32, i32* %63, i64 %66
  store i32 %61, i32* %67, align 4
  br label %68

68:                                               ; preds = %59, %52
  %69 = load i32*, i32** %8, align 8
  %70 = getelementptr inbounds i32, i32* %69, i32 1
  store i32* %70, i32** %8, align 8
  %71 = load i32*, i32** %4, align 8
  %72 = getelementptr inbounds i32, i32* %71, i32 1
  store i32* %72, i32** %4, align 8
  br label %32

73:                                               ; preds = %32
  %74 = getelementptr inbounds [300 x i32], [300 x i32]* %2, i64 0, i64 0
  store i32* %74, i32** %5, align 8
  br label %75

75:                                               ; preds = %87, %73
  %76 = load i32*, i32** %5, align 8
  %77 = load i32*, i32** %8, align 8
  %78 = load i32, i32* %6, align 4
  %79 = sext i32 %78 to i64
  %80 = sub i64 0, %79
  %81 = getelementptr inbounds i32, i32* %77, i64 %80
  %82 = icmp ult i32* %76, %81
  br i1 %82, label %83, label %90

83:                                               ; preds = %75
  %84 = load i32*, i32** %5, align 8
  %85 = load i32, i32* %84, align 4
  %86 = call i32 (i8*, ...) @printf(i8* getelementptr inbounds ([4 x i8], [4 x i8]* @.str.1, i64 0, i64 0), i32 %85)
  br label %87

87:                                               ; preds = %83
  %88 = load i32*, i32** %5, align 8
  %89 = getelementptr inbounds i32, i32* %88, i32 1
  store i32* %89, i32** %5, align 8
  br label %75

90:                                               ; preds = %75
  %91 = load i32*, i32** %8, align 8
  %92 = load i32, i32* %6, align 4
  %93 = sext i32 %92 to i64
  %94 = sub i64 0, %93
  %95 = getelementptr inbounds i32, i32* %91, i64 %94
  %96 = load i32, i32* %95, align 4
  %97 = call i32 (i8*, ...) @printf(i8* getelementptr inbounds ([4 x i8], [4 x i8]* @.str.2, i64 0, i64 0), i32 %96)
  ret void
}

; Function Attrs: argmemonly nounwind willreturn
declare void @llvm.memset.p0i8.i64(i8* nocapture writeonly, i8, i64, i1 immarg) #1

declare dso_local i32 @__isoc99_scanf(i8*, ...) #2

declare dso_local i32 @printf(i8*, ...) #2


!llvm.module.flags = !{!0}
!llvm.ident = !{!1}

!0 = !{i32 1, !"wchar_size", i32 4}
!1 = !{!"clang version 10.0.0-4ubuntu1 "}
